target datalayout = "e-m:e-p270:32:32-p271:32:32-p272:64:64-i64:64-i128:128-f80:128-n8:16:32:64-S128"
target triple = "x86_64-pc-linux-gnu"

%struct.cbuf = type { %union.pthread_mutex_t, i32, i32, i32, i32, i32, i32, i32, i32, i32, i32, ptr }
%union.pthread_mutex_t = type { %struct.__pthread_mutex_s }
%struct.__pthread_mutex_s = type { i32, i32, i32, i32, i32, i16, i16, %struct.__pthread_internal_list }
%struct.__pthread_internal_list = type { ptr, ptr }

@.str.2 = private unnamed_addr constant [29 x i8] c"%s: pthread_mutex_lock(): %m\00", align 1
@.str.3 = private unnamed_addr constant [31 x i8] c"%s: pthread_mutex_unlock(): %m\00", align 1
@__func__.cbuf_opt_set = private unnamed_addr constant [13 x i8] c"cbuf_opt_set\00", align 1

; Function Attrs: nounwind uwtable
define dso_local i32 @cbuf_opt_set(ptr noundef %0, i32 noundef %1, i32 noundef %2) #0 {
  %4 = alloca ptr, align 8
  %5 = alloca i32, align 4
  %6 = alloca i32, align 4
  %7 = alloca i32, align 4
  %8 = alloca i32, align 4
  %9 = alloca i32, align 4
  store ptr %0, ptr %4, align 8
  store i32 %1, ptr %5, align 4
  store i32 %2, ptr %6, align 4
  call void @llvm.lifetime.start.p0(i64 4, ptr %7) #8
  store i32 0, ptr %7, align 4
  br label %10

10:                                               ; preds = %3
  call void @llvm.lifetime.start.p0(i64 4, ptr %8) #8
  %11 = load ptr, ptr %4, align 8
  %12 = getelementptr inbounds nuw %struct.cbuf, ptr %11, i32 0, i32 0
  %13 = call i32 @pthread_mutex_lock(ptr noundef %12) #8
  store i32 %13, ptr %8, align 4
  %14 = load i32, ptr %8, align 4
  %15 = icmp ne i32 %14, 0
  br i1 %15, label %16, label %19

16:                                               ; preds = %10
  %17 = load i32, ptr %8, align 4
  %18 = call ptr @__errno_location() #9
  store i32 %17, ptr %18, align 4
  call void (ptr, ...) @fatal_abort(ptr noundef @.str.2, ptr noundef @__func__.cbuf_opt_set) #10
  unreachable

19:                                               ; preds = %10
  call void @llvm.lifetime.end.p0(i64 4, ptr %8) #8
  br label %20

20:                                               ; preds = %19
  br label %21

21:                                               ; preds = %20
  %22 = load i32, ptr %5, align 4
  %23 = icmp eq i32 %22, 0
  br i1 %23, label %24, label %40

24:                                               ; preds = %21
  %25 = load i32, ptr %6, align 4
  %26 = icmp eq i32 %25, 0
  br i1 %26, label %33, label %27

27:                                               ; preds = %24
  %28 = load i32, ptr %6, align 4
  %29 = icmp eq i32 %28, 1
  br i1 %29, label %33, label %30

30:                                               ; preds = %27
  %31 = load i32, ptr %6, align 4
  %32 = icmp eq i32 %31, 2
  br i1 %32, label %33, label %37

33:                                               ; preds = %30, %27, %24
  %34 = load i32, ptr %6, align 4
  %35 = load ptr, ptr %4, align 8
  %36 = getelementptr inbounds nuw %struct.cbuf, ptr %35, i32 0, i32 6
  store i32 %34, ptr %36, align 4
  br label %39

37:                                               ; preds = %30
  %38 = call ptr @__errno_location() #9
  store i32 22, ptr %38, align 4
  store i32 -1, ptr %7, align 4
  br label %39

39:                                               ; preds = %37, %33
  br label %42

40:                                               ; preds = %21
  %41 = call ptr @__errno_location() #9
  store i32 22, ptr %41, align 4
  store i32 -1, ptr %7, align 4
  br label %42

42:                                               ; preds = %40, %39
  br label %43

43:                                               ; preds = %42
  call void @llvm.lifetime.start.p0(i64 4, ptr %9) #8
  %44 = load ptr, ptr %4, align 8
  %45 = getelementptr inbounds nuw %struct.cbuf, ptr %44, i32 0, i32 0
  %46 = call i32 @pthread_mutex_unlock(ptr noundef %45) #8
  store i32 %46, ptr %9, align 4
  %47 = load i32, ptr %9, align 4
  %48 = icmp ne i32 %47, 0
  br i1 %48, label %49, label %52

49:                                               ; preds = %43
  %50 = load i32, ptr %9, align 4
  %51 = call ptr @__errno_location() #9
  store i32 %50, ptr %51, align 4
  call void (ptr, ...) @fatal_abort(ptr noundef @.str.3, ptr noundef @__func__.cbuf_opt_set) #10
  unreachable

52:                                               ; preds = %43
  call void @llvm.lifetime.end.p0(i64 4, ptr %9) #8
  br label %53

53:                                               ; preds = %52
  br label %54

54:                                               ; preds = %53
  %55 = load i32, ptr %7, align 4
  call void @llvm.lifetime.end.p0(i64 4, ptr %7) #8
  ret i32 %55
}