; Function Attrs: nounwind uwtable
define dso_local range(i32 -1, 1) i32 @cbuf_opt_set(ptr noundef %0, i32 noundef %1, i32 noundef %2) local_unnamed_addr #0 {
  %4 = tail call i32 @pthread_mutex_lock(ptr noundef %0) #15
  %.not = icmp eq i32 %4, 0
  br i1 %.not, label %7, label %5

5:                                                ; preds = %3
  %6 = tail call ptr @__errno_location() #14
  store i32 %4, ptr %6, align 4
  tail call void (ptr, ...) @fatal_abort(ptr noundef nonnull @.str.2, ptr noundef nonnull @__func__.cbuf_opt_set) #16
  unreachable

7:                                                ; preds = %3
  %8 = icmp eq i32 %1, 0
  br i1 %8, label %9, label %14

9:                                                ; preds = %7
  %or.cond3 = icmp ult i32 %2, 3
  br i1 %or.cond3, label %10, label %12

10:                                               ; preds = %9
  %11 = getelementptr inbounds nuw i8, ptr %0, i64 60
  store i32 %2, ptr %11, align 4
  br label %16

12:                                               ; preds = %9
  %13 = tail call ptr @__errno_location() #14
  store i32 22, ptr %13, align 4
  br label %16

14:                                               ; preds = %7
  %15 = tail call ptr @__errno_location() #14
  store i32 22, ptr %15, align 4
  br label %16

16:                                               ; preds = %14, %12, %10
  %.0 = phi i32 [ 0, %10 ], [ -1, %12 ], [ -1, %14 ]
  %17 = tail call i32 @pthread_mutex_unlock(ptr noundef %0) #15
  %.not17 = icmp eq i32 %17, 0
  br i1 %.not17, label %20, label %18

18:                                               ; preds = %16
  %19 = tail call ptr @__errno_location() #14
  store i32 %17, ptr %19, align 4
  tail call void (ptr, ...) @fatal_abort(ptr noundef nonnull @.str.3, ptr noundef nonnull @__func__.cbuf_opt_set) #16
  unreachable

20:                                               ; preds = %16
  ret i32 %.0
}